target datalayout = "e-m:e-p270:32:32-p271:32:32-p272:64:64-i64:64-i128:128-f80:128-n8:16:32:64-S128"
target triple = "x86_64-pc-linux-gnu"

%struct.Vec_Int_t_ = type { i32, i32, ptr }
%struct.Vec_Wec_t_ = type { i32, i32, ptr }

; Function Attrs: inlinehint nounwind uwtable
define internal i32 @Vec_IntSize(ptr noundef %0) #1 {
  %2 = alloca ptr, align 8
  store ptr %0, ptr %2, align 8, !tbaa !39
  %3 = load ptr, ptr %2, align 8, !tbaa !39
  %4 = getelementptr inbounds nuw %struct.Vec_Int_t_, ptr %3, i32 0, i32 1
  %5 = load i32, ptr %4, align 4, !tbaa !43
  ret i32 %5
}

; Function Attrs: inlinehint nounwind uwtable
define internal ptr @Vec_WecEntry(ptr noundef %0, i32 noundef %1) #1 {
  %3 = alloca ptr, align 8
  %4 = alloca i32, align 4
  store ptr %0, ptr %3, align 8, !tbaa !47
  store i32 %1, ptr %4, align 4, !tbaa !3
  %5 = load ptr, ptr %3, align 8, !tbaa !47
  %6 = getelementptr inbounds nuw %struct.Vec_Wec_t_, ptr %5, i32 0, i32 2
  %7 = load ptr, ptr %6, align 8, !tbaa !53
  %8 = load i32, ptr %4, align 4, !tbaa !3
  %9 = sext i32 %8 to i64
  %10 = getelementptr inbounds %struct.Vec_Int_t_, ptr %7, i64 %9
  ret ptr %10
}

; Function Attrs: inlinehint nounwind uwtable
define internal i32 @Vec_WecSize(ptr noundef %0) #1 {
  %2 = alloca ptr, align 8
  store ptr %0, ptr %2, align 8, !tbaa !47
  %3 = load ptr, ptr %2, align 8, !tbaa !47
  %4 = getelementptr inbounds nuw %struct.Vec_Wec_t_, ptr %3, i32 0, i32 1
  %5 = load i32, ptr %4, align 4, !tbaa !50
  ret i32 %5
}

; Function Attrs: nounwind uwtable
define double @Abc_GraphCountPaths(ptr noundef %0, ptr noundef %1) #0 {
  %3 = alloca ptr, align 8
  %4 = alloca ptr, align 8
  %5 = alloca i32, align 4
  %6 = alloca i32, align 4
  %7 = alloca [1000 x i32], align 16
  %8 = alloca ptr, align 8
  %9 = alloca ptr, align 8
  %10 = alloca double, align 8
  store ptr %0, ptr %3, align 8, !tbaa !47
  store ptr %1, ptr %4, align 8, !tbaa !39
  call void @llvm.lifetime.start.p0(i64 4, ptr %5) #12
  call void @llvm.lifetime.start.p0(i64 4, ptr %6) #12
  call void @llvm.lifetime.start.p0(i64 4000, ptr %7) #12
  call void @llvm.memset.p0.i64(ptr align 16 %7, i8 0, i64 4000, i1 false)
  call void @llvm.lifetime.start.p0(i64 8, ptr %8) #12
  %11 = load ptr, ptr %3, align 8, !tbaa !47
  %12 = call i32 @Vec_WecSize(ptr noundef %11)
  %13 = sext i32 %12 to i64
  %14 = mul i64 8, %13
  %15 = call noalias ptr @malloc(i64 noundef %14) #14
  store ptr %15, ptr %8, align 8, !tbaa !72
  call void @llvm.lifetime.start.p0(i64 8, ptr %9) #12
  call void @llvm.lifetime.start.p0(i64 8, ptr %10) #12
  store i32 0, ptr %5, align 4, !tbaa !3
  br label %16

16:                                               ; preds = %55, %2
  %17 = load i32, ptr %5, align 4, !tbaa !3
  %18 = load ptr, ptr %3, align 8, !tbaa !47
  %19 = call i32 @Vec_WecSize(ptr noundef %18)
  %20 = icmp slt i32 %17, %19
  br i1 %20, label %21, label %25

21:                                               ; preds = %16
  %22 = load ptr, ptr %3, align 8, !tbaa !47
  %23 = load i32, ptr %5, align 4, !tbaa !3
  %24 = call ptr @Vec_WecEntry(ptr noundef %22, i32 noundef %23)
  store ptr %24, ptr %9, align 8, !tbaa !39
  br label %25

25:                                               ; preds = %21, %16
  %26 = phi i1 [ false, %16 ], [ true, %21 ]
  br i1 %26, label %27, label %58

27:                                               ; preds = %25
  %28 = load ptr, ptr %9, align 8, !tbaa !39
  %29 = call i32 @Vec_IntSize(ptr noundef %28)
  %30 = sext i32 %29 to i64
  %31 = mul i64 8, %30
  %32 = call noalias ptr @malloc(i64 noundef %31) #14
  %33 = load ptr, ptr %8, align 8, !tbaa !72
  %34 = load i32, ptr %5, align 4, !tbaa !3
  %35 = sext i32 %34 to i64
  %36 = getelementptr inbounds ptr, ptr %33, i64 %35
  store ptr %32, ptr %36, align 8, !tbaa !74
  store i32 0, ptr %6, align 4, !tbaa !3
  br label %37

37:                                               ; preds = %51, %27
  %38 = load i32, ptr %6, align 4, !tbaa !3
  %39 = load ptr, ptr %9, align 8, !tbaa !39
  %40 = call i32 @Vec_IntSize(ptr noundef %39)
  %41 = icmp slt i32 %38, %40
  br i1 %41, label %42, label %54

42:                                               ; preds = %37
  %43 = load ptr, ptr %8, align 8, !tbaa !72
  %44 = load i32, ptr %5, align 4, !tbaa !3
  %45 = sext i32 %44 to i64
  %46 = getelementptr inbounds ptr, ptr %43, i64 %45
  %47 = load ptr, ptr %46, align 8, !tbaa !74
  %48 = load i32, ptr %6, align 4, !tbaa !3
  %49 = sext i32 %48 to i64
  %50 = getelementptr inbounds double, ptr %47, i64 %49
  store double -1.000000e+00, ptr %50, align 8, !tbaa !76
  br label %51

51:                                               ; preds = %42
  %52 = load i32, ptr %6, align 4, !tbaa !3
  %53 = add nsw i32 %52, 1
  store i32 %53, ptr %6, align 4, !tbaa !3
  br label %37, !llvm.loop !78

54:                                               ; preds = %37
  br label %55

55:                                               ; preds = %54
  %56 = load i32, ptr %5, align 4, !tbaa !3
  %57 = add nsw i32 %56, 1
  store i32 %57, ptr %5, align 4, !tbaa !3
  br label %16, !llvm.loop !79

58:                                               ; preds = %25
  %59 = load ptr, ptr %3, align 8, !tbaa !47
  %60 = load ptr, ptr %8, align 8, !tbaa !72
  %61 = getelementptr inbounds [1000 x i32], ptr %7, i64 0, i64 0
  %62 = load ptr, ptr %4, align 8, !tbaa !39
  %63 = call double @Abc_GraphCountPaths_rec(i32 noundef 0, i32 noundef 0, ptr noundef %59, ptr noundef %60, ptr noundef %61, ptr noundef %62)
  store double %63, ptr %10, align 8, !tbaa !76
  store i32 0, ptr %5, align 4, !tbaa !3
  br label %64

64:                                               ; preds = %88, %58
  %65 = load i32, ptr %5, align 4, !tbaa !3
  %66 = load ptr, ptr %3, align 8, !tbaa !47
  %67 = call i32 @Vec_WecSize(ptr noundef %66)
  %68 = icmp slt i32 %65, %67
  br i1 %68, label %69, label %91

69:                                               ; preds = %64
  %70 = load ptr, ptr %8, align 8, !tbaa !72
  %71 = load i32, ptr %5, align 4, !tbaa !3
  %72 = sext i32 %71 to i64
  %73 = getelementptr inbounds ptr, ptr %70, i64 %72
  %74 = load ptr, ptr %73, align 8, !tbaa !74
  %75 = icmp ne ptr %74, null
  br i1 %75, label %76, label %86

76:                                               ; preds = %69
  %77 = load ptr, ptr %8, align 8, !tbaa !72
  %78 = load i32, ptr %5, align 4, !tbaa !3
  %79 = sext i32 %78 to i64
  %80 = getelementptr inbounds ptr, ptr %77, i64 %79
  %81 = load ptr, ptr %80, align 8, !tbaa !74
  call void @free(ptr noundef %81) #12
  %82 = load ptr, ptr %8, align 8, !tbaa !72
  %83 = load i32, ptr %5, align 4, !tbaa !3
  %84 = sext i32 %83 to i64
  %85 = getelementptr inbounds ptr, ptr %82, i64 %84
  store ptr null, ptr %85, align 8, !tbaa !74
  br label %87

86:                                               ; preds = %69
  br label %87

87:                                               ; preds = %86, %76
  br label %88

88:                                               ; preds = %87
  %89 = load i32, ptr %5, align 4, !tbaa !3
  %90 = add nsw i32 %89, 1
  store i32 %90, ptr %5, align 4, !tbaa !3
  br label %64, !llvm.loop !80

91:                                               ; preds = %64
  %92 = load ptr, ptr %8, align 8, !tbaa !72
  %93 = icmp ne ptr %92, null
  br i1 %93, label %94, label %96

94:                                               ; preds = %91
  %95 = load ptr, ptr %8, align 8, !tbaa !72
  call void @free(ptr noundef %95) #12
  store ptr null, ptr %8, align 8, !tbaa !72
  br label %97

96:                                               ; preds = %91
  br label %97

97:                                               ; preds = %96, %94
  %98 = load double, ptr %10, align 8, !tbaa !76
  call void @llvm.lifetime.end.p0(i64 8, ptr %10) #12
  call void @llvm.lifetime.end.p0(i64 8, ptr %9) #12
  call void @llvm.lifetime.end.p0(i64 8, ptr %8) #12
  call void @llvm.lifetime.end.p0(i64 4000, ptr %7) #12
  call void @llvm.lifetime.end.p0(i64 4, ptr %6) #12
  call void @llvm.lifetime.end.p0(i64 4, ptr %5) #12
  ret double %98
}