; Function Attrs: nounwind uwtable
define double @Abc_GraphCountPaths(ptr noundef %0, ptr noundef %1) local_unnamed_addr #1 {
  %3 = alloca [1000 x i32], align 16
  call void @llvm.lifetime.start.p0(i64 4000, ptr nonnull %3) #23
  call void @llvm.memset.p0.i64(ptr noundef nonnull align 16 dereferenceable(4000) %3, i8 0, i64 4000, i1 false)
  %4 = getelementptr i8, ptr %0, i64 4
  %.val35 = load i32, ptr %4, align 4, !tbaa !43
  %5 = sext i32 %.val35 to i64
  %6 = shl nsw i64 %5, 3
  %7 = tail call noalias ptr @malloc(i64 noundef %6) #26
  %8 = icmp sgt i32 %.val35, 0
  br i1 %8, label %.lr.ph41, label %.critedge

.lr.ph41:                                         ; preds = %2
  %9 = getelementptr i8, ptr %0, i64 8
  %.val34 = load ptr, ptr %9, align 8, !tbaa !46
  %wide.trip.count50 = zext nneg i32 %.val35 to i64
  br label %10

10:                                               ; preds = %.lr.ph41, %._crit_edge
  %indvars.iv47 = phi i64 [ 0, %.lr.ph41 ], [ %indvars.iv.next48, %._crit_edge ]
  %11 = getelementptr %struct.Vec_Int_t_, ptr %.val34, i64 %indvars.iv47, i32 1
  %.val33 = load i32, ptr %11, align 4, !tbaa !34
  %12 = sext i32 %.val33 to i64
  %13 = shl nsw i64 %12, 3
  %14 = tail call noalias ptr @malloc(i64 noundef %13) #26
  %15 = getelementptr inbounds nuw ptr, ptr %7, i64 %indvars.iv47
  store ptr %14, ptr %15, align 8, !tbaa !65
  %16 = icmp sgt i32 %.val33, 0
  br i1 %16, label %.lr.ph.preheader, label %._crit_edge

.lr.ph.preheader:                                 ; preds = %10
  %wide.trip.count = zext nneg i32 %.val33 to i64
  br label %.lr.ph

.lr.ph:                                           ; preds = %.lr.ph.preheader, %.lr.ph
  %indvars.iv = phi i64 [ 0, %.lr.ph.preheader ], [ %indvars.iv.next, %.lr.ph ]
  %17 = getelementptr inbounds nuw double, ptr %14, i64 %indvars.iv
  store double -1.000000e+00, ptr %17, align 8, !tbaa !67
  %indvars.iv.next = add nuw nsw i64 %indvars.iv, 1
  %exitcond.not = icmp eq i64 %indvars.iv.next, %wide.trip.count
  br i1 %exitcond.not, label %._crit_edge, label %.lr.ph, !llvm.loop !69

._crit_edge:                                      ; preds = %.lr.ph, %10
  %indvars.iv.next48 = add nuw nsw i64 %indvars.iv47, 1
  %exitcond51.not = icmp eq i64 %indvars.iv.next48, %wide.trip.count50
  br i1 %exitcond51.not, label %.critedge, label %10, !llvm.loop !70

.critedge:                                        ; preds = %._crit_edge, %2
  %18 = call double @Abc_GraphCountPaths_rec(i32 noundef 0, i32 noundef 0, ptr noundef %0, ptr noundef %7, ptr noundef nonnull %3, ptr noundef %1)
  %.val3742 = load i32, ptr %4, align 4, !tbaa !43
  %19 = icmp sgt i32 %.val3742, 0
  br i1 %19, label %.lr.ph44, label %._crit_edge45

.lr.ph44:                                         ; preds = %.critedge, %23
  %.val3755 = phi i32 [ %.val37, %23 ], [ %.val3742, %.critedge ]
  %indvars.iv52 = phi i64 [ %indvars.iv.next53, %23 ], [ 0, %.critedge ]
  %20 = getelementptr inbounds nuw ptr, ptr %7, i64 %indvars.iv52
  %21 = load ptr, ptr %20, align 8, !tbaa !65
  %.not32 = icmp eq ptr %21, null
  br i1 %.not32, label %23, label %22

22:                                               ; preds = %.lr.ph44
  call void @free(ptr noundef nonnull %21) #23
  store ptr null, ptr %20, align 8, !tbaa !65
  %.val37.pre = load i32, ptr %4, align 4, !tbaa !43
  br label %23

23:                                               ; preds = %22, %.lr.ph44
  %.val37 = phi i32 [ %.val37.pre, %22 ], [ %.val3755, %.lr.ph44 ]
  %indvars.iv.next53 = add nuw nsw i64 %indvars.iv52, 1
  %24 = sext i32 %.val37 to i64
  %25 = icmp slt i64 %indvars.iv.next53, %24
  br i1 %25, label %.lr.ph44, label %._crit_edge45.thread, !llvm.loop !71

._crit_edge45:                                    ; preds = %.critedge
  %.not = icmp eq ptr %7, null
  br i1 %.not, label %26, label %._crit_edge45.thread

._crit_edge45.thread:                             ; preds = %23, %._crit_edge45
  call void @free(ptr noundef nonnull %7) #23
  br label %26

26:                                               ; preds = %._crit_edge45, %._crit_edge45.thread
  call void @llvm.lifetime.end.p0(i64 4000, ptr nonnull %3) #23
  ret double %18
}